target datalayout = "e-m:e-p270:32:32-p271:32:32-p272:64:64-i64:64-i128:128-f80:128-n8:16:32:64-S128"
target triple = "x86_64-pc-linux-gnu"

%struct.event_base = type { ptr, ptr, %struct.event_changelist, ptr, %struct.evsig_info, i32, i32, i32, i32, i32, i32, i32, i32, i32, i32, i32, i32, ptr, i32, %struct.evcallback_list, ptr, i32, i32, %struct.event_signal_map, %struct.event_signal_map, %struct.min_heap, %struct.timeval, %struct.evutil_monotonic_timer, %struct.timeval, i64, i64, ptr, ptr, i32, ptr, i32, %struct.timeval, i32, i32, i32, [2 x i32], %struct.event, ptr, %struct.evutil_weakrand_state, %struct.once_event_list, [2 x %struct.evwatch_list] }
%struct.event_changelist = type { ptr, i32, i32 }
%struct.evsig_info = type { %struct.event, [2 x i32], i32, i32, [65 x ptr], ptr, i32 }
%struct.evcallback_list = type { ptr, ptr }
%struct.event_signal_map = type { ptr, i32 }
%struct.min_heap = type { ptr, i64, i64 }
%struct.evutil_monotonic_timer = type { i32, %struct.timeval, %struct.timeval }
%struct.timeval = type { i64, i64 }
%struct.event = type { %struct.event_callback, %union.anon.0, i32, i16, i16, ptr, %union.anon.2, %struct.timeval }
%struct.event_callback = type { %struct.anon, i16, i8, i8, %union.anon, ptr }
%struct.anon = type { ptr, ptr }
%union.anon = type { ptr }
%union.anon.0 = type { %struct.anon.1 }
%struct.anon.1 = type { ptr, ptr }
%union.anon.2 = type { %struct.anon.3 }
%struct.anon.3 = type { %struct.anon.4, %struct.timeval }
%struct.anon.4 = type { ptr, ptr }
%struct.evutil_weakrand_state = type { i32 }
%struct.once_event_list = type { ptr }
%struct.evwatch_list = type { ptr, ptr }

@.str.4 = private unnamed_addr constant [10 x i8] c"sigaction\00", align 1

; Function Attrs: nounwind uwtable
define hidden i32 @evsig_restore_handler_(ptr noundef %0, i32 noundef %1) #0 {
  %3 = alloca i32, align 4
  %4 = alloca ptr, align 8
  %5 = alloca i32, align 4
  %6 = alloca i32, align 4
  %7 = alloca ptr, align 8
  %8 = alloca ptr, align 8
  %9 = alloca i32, align 4
  store ptr %0, ptr %4, align 8
  store i32 %1, ptr %5, align 4
  call void @llvm.lifetime.start.p0(i64 4, ptr %6) #8
  store i32 0, ptr %6, align 4
  call void @llvm.lifetime.start.p0(i64 8, ptr %7) #8
  %10 = load ptr, ptr %4, align 8
  %11 = getelementptr inbounds nuw %struct.event_base, ptr %10, i32 0, i32 4
  store ptr %11, ptr %7, align 8
  call void @llvm.lifetime.start.p0(i64 8, ptr %8) #8
  %12 = load i32, ptr %5, align 4
  %13 = load ptr, ptr %7, align 8
  %14 = getelementptr inbounds nuw %struct.evsig_info, ptr %13, i32 0, i32 6
  %15 = load i32, ptr %14, align 8
  %16 = icmp sge i32 %12, %15
  br i1 %16, label %17, label %18

17:                                               ; preds = %2
  store i32 0, ptr %3, align 4
  store i32 1, ptr %9, align 4
  br label %40

18:                                               ; preds = %2
  %19 = load ptr, ptr %7, align 8
  %20 = getelementptr inbounds nuw %struct.evsig_info, ptr %19, i32 0, i32 5
  %21 = load ptr, ptr %20, align 8
  %22 = load i32, ptr %5, align 4
  %23 = sext i32 %22 to i64
  %24 = getelementptr inbounds ptr, ptr %21, i64 %23
  %25 = load ptr, ptr %24, align 8
  store ptr %25, ptr %8, align 8
  %26 = load ptr, ptr %7, align 8
  %27 = getelementptr inbounds nuw %struct.evsig_info, ptr %26, i32 0, i32 5
  %28 = load ptr, ptr %27, align 8
  %29 = load i32, ptr %5, align 4
  %30 = sext i32 %29 to i64
  %31 = getelementptr inbounds ptr, ptr %28, i64 %30
  store ptr null, ptr %31, align 8
  %32 = load i32, ptr %5, align 4
  %33 = load ptr, ptr %8, align 8
  %34 = call i32 @sigaction(i32 noundef %32, ptr noundef %33, ptr noundef null) #8
  %35 = icmp eq i32 %34, -1
  br i1 %35, label %36, label %37

36:                                               ; preds = %18
  call void (ptr, ...) @event_warn(ptr noundef @.str.4)
  store i32 -1, ptr %6, align 4
  br label %37

37:                                               ; preds = %36, %18
  %38 = load ptr, ptr %8, align 8
  call void @event_mm_free_(ptr noundef %38)
  %39 = load i32, ptr %6, align 4
  store i32 %39, ptr %3, align 4
  store i32 1, ptr %9, align 4
  br label %40

40:                                               ; preds = %37, %17
  call void @llvm.lifetime.end.p0(i64 8, ptr %8) #8
  call void @llvm.lifetime.end.p0(i64 8, ptr %7) #8
  call void @llvm.lifetime.end.p0(i64 4, ptr %6) #8
  %41 = load i32, ptr %3, align 4
  ret i32 %41
}