; Function Attrs: nounwind uwtable
define hidden range(i32 -1, 1) i32 @evsig_restore_handler_(ptr noundef readonly captures(none) %0, i32 noundef %1) local_unnamed_addr #0 {
  %3 = getelementptr inbounds nuw i8, ptr %0, i64 704
  %4 = load i32, ptr %3, align 8
  %.not = icmp slt i32 %1, %4
  br i1 %.not, label %5, label %15

5:                                                ; preds = %2
  %6 = getelementptr inbounds nuw i8, ptr %0, i64 696
  %7 = load ptr, ptr %6, align 8
  %8 = sext i32 %1 to i64
  %9 = getelementptr inbounds ptr, ptr %7, i64 %8
  %10 = load ptr, ptr %9, align 8
  store ptr null, ptr %9, align 8
  %11 = tail call i32 @sigaction(i32 noundef %1, ptr noundef %10, ptr noundef null) #8
  %12 = icmp eq i32 %11, -1
  br i1 %12, label %13, label %14

13:                                               ; preds = %5
  tail call void (ptr, ...) @event_warn(ptr noundef nonnull @.str.4) #8
  br label %14

14:                                               ; preds = %13, %5
  %.011 = phi i32 [ -1, %13 ], [ 0, %5 ]
  tail call void @event_mm_free_(ptr noundef %10) #8
  br label %15

15:                                               ; preds = %2, %14
  %.0 = phi i32 [ %.011, %14 ], [ 0, %2 ]
  ret i32 %.0
}